; Function Attrs: mustprogress uwtable
define noundef i64 @_ZNK7rocksdb9lru_cache13LRUCacheShard20GetTableAddressCountEv(ptr noundef nonnull align 64 dereferenceable(256) %this) #0 align 2 personality ptr @__gxx_personality_v0 {
entry:
  %mutex_ = getelementptr inbounds i8, ptr %this, i64 208
  tail call void @_ZN7rocksdb4port5Mutex4LockEv(ptr noundef nonnull align 8 dereferenceable(40) %mutex_)
  %table_ = getelementptr inbounds i8, ptr %this, i64 160
  %0 = load i32, ptr %table_, align 32
  invoke void @_ZN7rocksdb4port5Mutex6UnlockEv(ptr noundef nonnull align 8 dereferenceable(40) %mutex_)
          to label %_ZNSt10lock_guardIN7rocksdb4port5MutexEED2Ev.exit unwind label %terminate.lpad.i

terminate.lpad.i:                                 ; preds = %entry
  %1 = landingpad { ptr, i32 }
          catch ptr null
  %2 = extractvalue { ptr, i32 } %1, 0
  tail call void @__clang_call_terminate(ptr %2) #27
  unreachable

_ZNSt10lock_guardIN7rocksdb4port5MutexEED2Ev.exit: ; preds = %entry
  %sh_prom = zext nneg i32 %0 to i64
  %shl = shl nuw i64 1, %sh_prom
  ret i64 %shl
}